target datalayout = "e-m:e-p270:32:32-p271:32:32-p272:64:64-i64:64-i128:128-f80:128-n8:16:32:64-S128"
target triple = "x86_64-pc-linux-gnu"

%struct.jit_State = type { %struct.GCtrace, ptr, ptr, ptr, ptr, ptr, ptr, i32, i32, i32, i8, i8, %struct.IRType1, i8, %struct.FoldState, ptr, i32, i32, i32, i32, i32, i32, i32, [1 x i32], [5 x %union.TValue], [3 x %union.TValue], ptr, i32, i32, i32, i32, ptr, ptr, i32, i32, i8, ptr, i32, i32, i16, [101 x i16], [258 x i32], [15 x i32], [16 x ptr], [64 x %struct.HotPenalty], i32, [16 x %struct.BPropEntry], i32, %struct.ScEvEntry, ptr, i32, i32, i32, ptr, i32, i32, ptr, ptr, ptr, i64, i64, %union.TValue, ptr, i32, i32 }
%struct.GCtrace = type { %struct.GCRef, i8, i8, i16, i32, i32, %struct.GCRef, ptr, i32, i32, ptr, ptr, %struct.GCRef, %struct.MRef, i32, i32, ptr, i32, i16, i16, i16, i16, i16, i16, i16, i8, i8, i8, i8 }
%struct.GCRef = type { i64 }
%struct.MRef = type { i64 }
%struct.IRType1 = type { i8 }
%struct.FoldState = type { %union.IRIns, [2 x %union.IRIns], [2 x %union.IRIns] }
%union.IRIns = type { %struct.GCRef }
%struct.HotPenalty = type { %struct.MRef, i16, i16 }
%struct.BPropEntry = type { i16, i16, i32 }
%struct.ScEvEntry = type { %struct.MRef, i16, i16, i16, i16, %struct.IRType1, i8 }
%union.TValue = type { i64 }
%struct.anon.1 = type { i16, i16, i16, i16 }
%struct.lua_State = type { %struct.GCRef, i8, i8, i8, i8, %struct.MRef, %struct.GCRef, ptr, ptr, %struct.MRef, %struct.MRef, %struct.GCRef, %struct.GCRef, ptr, i32 }

; Function Attrs: alwaysinline nounwind uwtable
define internal void @lj_ir_set_(ptr noundef %0, i16 noundef zeroext %1, i16 noundef zeroext %2, i16 noundef zeroext %3) #3 {
  %5 = alloca ptr, align 8
  %6 = alloca i16, align 2
  %7 = alloca i16, align 2
  %8 = alloca i16, align 2
  store ptr %0, ptr %5, align 8, !tbaa !4
  store i16 %1, ptr %6, align 2, !tbaa !13
  store i16 %2, ptr %7, align 2, !tbaa !13
  store i16 %3, ptr %8, align 2, !tbaa !13
  %9 = load i16, ptr %6, align 2, !tbaa !13
  %10 = load ptr, ptr %5, align 8, !tbaa !4
  %11 = getelementptr inbounds nuw %struct.jit_State, ptr %10, i32 0, i32 14
  %12 = getelementptr inbounds nuw %struct.FoldState, ptr %11, i32 0, i32 0
  %13 = getelementptr inbounds nuw %struct.anon.1, ptr %12, i32 0, i32 2
  store i16 %9, ptr %13, align 4, !tbaa !15
  %14 = load i16, ptr %7, align 2, !tbaa !13
  %15 = load ptr, ptr %5, align 8, !tbaa !4
  %16 = getelementptr inbounds nuw %struct.jit_State, ptr %15, i32 0, i32 14
  %17 = getelementptr inbounds nuw %struct.FoldState, ptr %16, i32 0, i32 0
  %18 = getelementptr inbounds nuw %struct.anon.1, ptr %17, i32 0, i32 0
  store i16 %14, ptr %18, align 8, !tbaa !15
  %19 = load i16, ptr %8, align 2, !tbaa !13
  %20 = load ptr, ptr %5, align 8, !tbaa !4
  %21 = getelementptr inbounds nuw %struct.jit_State, ptr %20, i32 0, i32 14
  %22 = getelementptr inbounds nuw %struct.FoldState, ptr %21, i32 0, i32 0
  %23 = getelementptr inbounds nuw %struct.anon.1, ptr %22, i32 0, i32 1
  store i16 %19, ptr %23, align 2, !tbaa !15
  ret void
}

; Function Attrs: alwaysinline nounwind uwtable
define internal i32 @itype2irt(ptr noundef %0) #3 {
  %2 = alloca i32, align 4
  %3 = alloca ptr, align 8
  store ptr %0, ptr %3, align 8, !tbaa !11
  %4 = load ptr, ptr %3, align 8, !tbaa !11
  %5 = load i64, ptr %4, align 8, !tbaa !15
  %6 = ashr i64 %5, 47
  %7 = trunc i64 %6 to i32
  %8 = icmp ult i32 %7, -14
  br i1 %8, label %9, label %10

9:                                                ; preds = %1
  store i32 14, ptr %2, align 4
  br label %16

10:                                               ; preds = %1
  %11 = load ptr, ptr %3, align 8, !tbaa !11
  %12 = load i64, ptr %11, align 8, !tbaa !15
  %13 = ashr i64 %12, 47
  %14 = trunc i64 %13 to i32
  %15 = xor i32 %14, -1
  store i32 %15, ptr %2, align 4
  br label %16

16:                                               ; preds = %10, %9
  %17 = load i32, ptr %2, align 4
  ret i32 %17
}

; Function Attrs: nounwind uwtable
define internal i32 @sload(ptr noundef %0, i32 noundef %1) #0 {
  %3 = alloca ptr, align 8
  %4 = alloca i32, align 4
  %5 = alloca i32, align 4
  %6 = alloca i32, align 4
  store ptr %0, ptr %3, align 8, !tbaa !4
  store i32 %1, ptr %4, align 4, !tbaa !9
  call void @llvm.lifetime.start.p0(i64 4, ptr %5) #9
  %7 = load ptr, ptr %3, align 8, !tbaa !4
  %8 = getelementptr inbounds nuw %struct.jit_State, ptr %7, i32 0, i32 2
  %9 = load ptr, ptr %8, align 8, !tbaa !51
  %10 = getelementptr inbounds nuw %struct.lua_State, ptr %9, i32 0, i32 7
  %11 = load ptr, ptr %10, align 8, !tbaa !52
  %12 = load i32, ptr %4, align 4, !tbaa !9
  %13 = sext i32 %12 to i64
  %14 = getelementptr inbounds %union.TValue, ptr %11, i64 %13
  %15 = call i32 @itype2irt(ptr noundef %14)
  store i32 %15, ptr %5, align 4, !tbaa !9
  call void @llvm.lifetime.start.p0(i64 4, ptr %6) #9
  %16 = load ptr, ptr %3, align 8, !tbaa !4
  %17 = load i32, ptr %5, align 4, !tbaa !9
  %18 = or i32 128, %17
  %19 = or i32 18176, %18
  %20 = trunc i32 %19 to i16
  %21 = load ptr, ptr %3, align 8, !tbaa !4
  %22 = getelementptr inbounds nuw %struct.jit_State, ptr %21, i32 0, i32 9
  %23 = load i32, ptr %22, align 8, !tbaa !43
  %24 = load i32, ptr %4, align 4, !tbaa !9
  %25 = add nsw i32 %23, %24
  %26 = trunc i32 %25 to i16
  call void @lj_ir_set_(ptr noundef %16, i16 noundef zeroext %20, i16 noundef zeroext %26, i16 noundef zeroext 4)
  %27 = load ptr, ptr %3, align 8, !tbaa !4
  %28 = call i32 @lj_ir_emit(ptr noundef %27)
  store i32 %28, ptr %6, align 4, !tbaa !9
  %29 = load i32, ptr %5, align 4, !tbaa !9
  %30 = icmp ule i32 %29, 2
  br i1 %30, label %31, label %37

31:                                               ; preds = %2
  %32 = load i32, ptr %5, align 4, !tbaa !9
  %33 = sub i32 32767, %32
  %34 = load i32, ptr %5, align 4, !tbaa !9
  %35 = shl i32 %34, 24
  %36 = add i32 %33, %35
  store i32 %36, ptr %6, align 4, !tbaa !9
  br label %37

37:                                               ; preds = %31, %2
  %38 = load i32, ptr %6, align 4, !tbaa !9
  %39 = load ptr, ptr %3, align 8, !tbaa !4
  %40 = getelementptr inbounds nuw %struct.jit_State, ptr %39, i32 0, i32 6
  %41 = load ptr, ptr %40, align 8, !tbaa !50
  %42 = load i32, ptr %4, align 4, !tbaa !9
  %43 = sext i32 %42 to i64
  %44 = getelementptr inbounds i32, ptr %41, i64 %43
  store i32 %38, ptr %44, align 4, !tbaa !9
  %45 = load i32, ptr %6, align 4, !tbaa !9
  call void @llvm.lifetime.end.p0(i64 4, ptr %6) #9
  call void @llvm.lifetime.end.p0(i64 4, ptr %5) #9
  ret i32 %45
}

; Function Attrs: nounwind uwtable
define internal i32 @rec_iterl(ptr noundef %0, i32 noundef %1) #0 {
  %3 = alloca i32, align 4
  %4 = alloca ptr, align 8
  %5 = alloca i32, align 4
  %6 = alloca i32, align 4
  %7 = alloca i32, align 4
  store ptr %0, ptr %4, align 8, !tbaa !4
  store i32 %1, ptr %5, align 4, !tbaa !9
  call void @llvm.lifetime.start.p0(i64 4, ptr %6) #9
  %8 = load i32, ptr %5, align 4, !tbaa !9
  %9 = lshr i32 %8, 8
  %10 = and i32 %9, 255
  store i32 %10, ptr %6, align 4, !tbaa !9
  %11 = load ptr, ptr %4, align 8, !tbaa !4
  %12 = getelementptr inbounds nuw %struct.jit_State, ptr %11, i32 0, i32 6
  %13 = load ptr, ptr %12, align 8, !tbaa !50
  %14 = load i32, ptr %6, align 4, !tbaa !9
  %15 = zext i32 %14 to i64
  %16 = getelementptr inbounds nuw i32, ptr %13, i64 %15
  %17 = load i32, ptr %16, align 4, !tbaa !9
  %18 = icmp ne i32 %17, 0
  br i1 %18, label %19, label %27

19:                                               ; preds = %2
  %20 = load ptr, ptr %4, align 8, !tbaa !4
  %21 = getelementptr inbounds nuw %struct.jit_State, ptr %20, i32 0, i32 6
  %22 = load ptr, ptr %21, align 8, !tbaa !50
  %23 = load i32, ptr %6, align 4, !tbaa !9
  %24 = zext i32 %23 to i64
  %25 = getelementptr inbounds nuw i32, ptr %22, i64 %24
  %26 = load i32, ptr %25, align 4, !tbaa !9
  br label %31

27:                                               ; preds = %2
  %28 = load ptr, ptr %4, align 8, !tbaa !4
  %29 = load i32, ptr %6, align 4, !tbaa !9
  %30 = call i32 @sload(ptr noundef %28, i32 noundef %29)
  br label %31

31:                                               ; preds = %27, %19
  %32 = phi i32 [ %26, %19 ], [ %30, %27 ]
  %33 = and i32 %32, 520093696
  %34 = icmp eq i32 %33, 0
  br i1 %34, label %70, label %35

35:                                               ; preds = %31
  %36 = load ptr, ptr %4, align 8, !tbaa !4
  %37 = getelementptr inbounds nuw %struct.jit_State, ptr %36, i32 0, i32 6
  %38 = load ptr, ptr %37, align 8, !tbaa !50
  %39 = load i32, ptr %6, align 4, !tbaa !9
  %40 = zext i32 %39 to i64
  %41 = getelementptr inbounds nuw i32, ptr %38, i64 %40
  %42 = load i32, ptr %41, align 4, !tbaa !9
  %43 = load ptr, ptr %4, align 8, !tbaa !4
  %44 = getelementptr inbounds nuw %struct.jit_State, ptr %43, i32 0, i32 6
  %45 = load ptr, ptr %44, align 8, !tbaa !50
  %46 = load i32, ptr %6, align 4, !tbaa !9
  %47 = sub i32 %46, 1
  %48 = zext i32 %47 to i64
  %49 = getelementptr inbounds nuw i32, ptr %45, i64 %48
  store i32 %42, ptr %49, align 4, !tbaa !9
  %50 = load i32, ptr %6, align 4, !tbaa !9
  %51 = sub i32 %50, 1
  %52 = load ptr, ptr %4, align 8, !tbaa !4
  %53 = getelementptr inbounds nuw %struct.jit_State, ptr %52, i32 0, i32 3
  %54 = load ptr, ptr %53, align 8, !tbaa !66
  %55 = getelementptr inbounds i32, ptr %54, i64 -1
  %56 = load i32, ptr %55, align 4, !tbaa !9
  %57 = lshr i32 %56, 24
  %58 = add i32 %51, %57
  %59 = load ptr, ptr %4, align 8, !tbaa !4
  %60 = getelementptr inbounds nuw %struct.jit_State, ptr %59, i32 0, i32 8
  store i32 %58, ptr %60, align 4, !tbaa !44
  %61 = load i32, ptr %5, align 4, !tbaa !9
  %62 = lshr i32 %61, 16
  %63 = zext i32 %62 to i64
  %64 = sub nsw i64 %63, 32768
  %65 = add nsw i64 %64, 1
  %66 = load ptr, ptr %4, align 8, !tbaa !4
  %67 = getelementptr inbounds nuw %struct.jit_State, ptr %66, i32 0, i32 3
  %68 = load ptr, ptr %67, align 8, !tbaa !66
  %69 = getelementptr inbounds i32, ptr %68, i64 %65
  store ptr %69, ptr %67, align 8, !tbaa !66
  store i32 2, ptr %3, align 4
  store i32 1, ptr %7, align 4
  br label %79

70:                                               ; preds = %31
  %71 = load i32, ptr %6, align 4, !tbaa !9
  %72 = sub i32 %71, 3
  %73 = load ptr, ptr %4, align 8, !tbaa !4
  %74 = getelementptr inbounds nuw %struct.jit_State, ptr %73, i32 0, i32 8
  store i32 %72, ptr %74, align 4, !tbaa !44
  %75 = load ptr, ptr %4, align 8, !tbaa !4
  %76 = getelementptr inbounds nuw %struct.jit_State, ptr %75, i32 0, i32 3
  %77 = load ptr, ptr %76, align 8, !tbaa !66
  %78 = getelementptr inbounds nuw i32, ptr %77, i32 1
  store ptr %78, ptr %76, align 8, !tbaa !66
  store i32 0, ptr %3, align 4
  store i32 1, ptr %7, align 4
  br label %79

79:                                               ; preds = %70, %35
  call void @llvm.lifetime.end.p0(i64 4, ptr %6) #9
  %80 = load i32, ptr %3, align 4
  ret i32 %80
}