; Function Attrs: nounwind uwtable
define internal fastcc range(i32 0, 3) i32 @rec_iterl(ptr noundef %0, i32 noundef %1) unnamed_addr #0 {
  %3 = lshr i32 %1, 8
  %4 = and i32 %3, 255
  %5 = getelementptr inbounds nuw i8, ptr %0, i64 160
  %6 = load ptr, ptr %5, align 8, !tbaa !43
  %7 = zext nneg i32 %4 to i64
  %8 = getelementptr inbounds nuw i32, ptr %6, i64 %7
  %9 = load i32, ptr %8, align 4, !tbaa !37
  %.not = icmp eq i32 %9, 0
  br i1 %.not, label %10, label %36

10:                                               ; preds = %2
  %11 = getelementptr inbounds nuw i8, ptr %0, i64 128
  %12 = load ptr, ptr %11, align 8, !tbaa !44
  %13 = getelementptr inbounds nuw i8, ptr %12, i64 32
  %14 = load ptr, ptr %13, align 8, !tbaa !45
  %15 = getelementptr inbounds nuw %union.TValue, ptr %14, i64 %7
  %16 = load i64, ptr %15, align 8, !tbaa !4
  %17 = ashr i64 %16, 47
  %18 = icmp ult i64 %17, -14
  %19 = trunc nsw i64 %17 to i32
  %20 = xor i32 %19, -1
  %.0.i.i = select i1 %18, i32 14, i32 %20
  %21 = trunc nuw nsw i32 %.0.i.i to i16
  %22 = or disjoint i16 %21, 18304
  %23 = getelementptr inbounds nuw i8, ptr %0, i64 176
  %24 = load i32, ptr %23, align 8, !tbaa !35
  %25 = add nsw i32 %24, %4
  %26 = trunc i32 %25 to i16
  %27 = getelementptr inbounds nuw i8, ptr %0, i64 184
  %28 = getelementptr inbounds nuw i8, ptr %0, i64 188
  store i16 %22, ptr %28, align 4, !tbaa !4
  store i16 %26, ptr %27, align 8, !tbaa !4
  %29 = getelementptr inbounds nuw i8, ptr %0, i64 186
  store i16 4, ptr %29, align 2, !tbaa !4
  %30 = tail call i32 @lj_ir_emit(ptr noundef nonnull %0) #8
  %31 = icmp samesign ult i32 %.0.i.i, 3
  %32 = mul nuw nsw i32 %.0.i.i, 16777217
  %33 = xor i32 %32, 32767
  %.0.i = select i1 %31, i32 %33, i32 %30
  %34 = load ptr, ptr %5, align 8, !tbaa !43
  %35 = getelementptr inbounds nuw i32, ptr %34, i64 %7
  store i32 %.0.i, ptr %35, align 4, !tbaa !37
  br label %36

36:                                               ; preds = %2, %10
  %37 = phi ptr [ %34, %10 ], [ %6, %2 ]
  %38 = phi i32 [ %.0.i, %10 ], [ %9, %2 ]
  %39 = and i32 %38, 520093696
  %40 = icmp eq i32 %39, 0
  br i1 %40, label %56, label %41

41:                                               ; preds = %36
  %42 = add nsw i32 %4, -1
  %43 = zext i32 %42 to i64
  %44 = getelementptr inbounds nuw i32, ptr %37, i64 %43
  store i32 %38, ptr %44, align 4, !tbaa !37
  %45 = getelementptr inbounds nuw i8, ptr %0, i64 136
  %46 = load ptr, ptr %45, align 8, !tbaa !61
  %47 = getelementptr inbounds i8, ptr %46, i64 -4
  %48 = load i32, ptr %47, align 4, !tbaa !37
  %49 = lshr i32 %48, 24
  %50 = add nsw i32 %49, %42
  %51 = getelementptr inbounds nuw i8, ptr %0, i64 172
  store i32 %50, ptr %51, align 4, !tbaa !36
  %52 = lshr i32 %1, 16
  %53 = zext nneg i32 %52 to i64
  %54 = getelementptr i32, ptr %46, i64 %53
  %55 = getelementptr i8, ptr %54, i64 -131068
  store ptr %55, ptr %45, align 8, !tbaa !61
  br label %62

56:                                               ; preds = %36
  %57 = add nsw i32 %4, -3
  %58 = getelementptr inbounds nuw i8, ptr %0, i64 172
  store i32 %57, ptr %58, align 4, !tbaa !36
  %59 = getelementptr inbounds nuw i8, ptr %0, i64 136
  %60 = load ptr, ptr %59, align 8, !tbaa !61
  %61 = getelementptr inbounds nuw i8, ptr %60, i64 4
  store ptr %61, ptr %59, align 8, !tbaa !61
  br label %62

62:                                               ; preds = %56, %41
  %.0 = phi i32 [ 0, %56 ], [ 2, %41 ]
  ret i32 %.0
}